; Function Attrs: mustprogress nounwind uwtable
define noundef nonnull align 8 dereferenceable(19) ptr @_ZN6icu_7511MeasureUnitaSEOS0_(ptr noundef nonnull returned align 8 dereferenceable(19) %this, ptr noundef nonnull align 8 dereferenceable(19) %other) local_unnamed_addr #0 align 2 personality ptr @__gxx_personality_v0 {
entry:
  %cmp = icmp eq ptr %this, %other
  br i1 %cmp, label %return, label %if.end

if.end:                                           ; preds = %entry
  %fImpl = getelementptr inbounds i8, ptr %this, i64 8
  %0 = load ptr, ptr %fImpl, align 8
  %cmp2.not = icmp eq ptr %0, null
  br i1 %cmp2.not, label %if.end5, label %delete.notnull

delete.notnull:                                   ; preds = %if.end
  %identifier.i = getelementptr inbounds i8, ptr %0, i64 96
  tail call void @_ZN6icu_7515MaybeStackArrayIcLi40EED1Ev(ptr noundef nonnull align 8 dereferenceable(53) %identifier.i) #17
  %singleUnits.i = getelementptr inbounds i8, ptr %0, i64 8
  %1 = load i32, ptr %singleUnits.i, align 8
  %cmp3.i.i.i = icmp sgt i32 %1, 0
  br i1 %cmp3.i.i.i, label %for.body.lr.ph.i.i.i, label %for.end.i.i.i

for.body.lr.ph.i.i.i:                             ; preds = %delete.notnull
  %fPool.i.i.i = getelementptr inbounds i8, ptr %0, i64 16
  br label %for.body.i.i.i

for.body.i.i.i:                                   ; preds = %for.inc.i.i.i, %for.body.lr.ph.i.i.i
  %2 = phi i32 [ %1, %for.body.lr.ph.i.i.i ], [ %5, %for.inc.i.i.i ]
  %indvars.iv.i.i.i = phi i64 [ 0, %for.body.lr.ph.i.i.i ], [ %indvars.iv.next.i.i.i, %for.inc.i.i.i ]
  %3 = load ptr, ptr %fPool.i.i.i, align 8
  %arrayidx.i.i.i.i = getelementptr inbounds ptr, ptr %3, i64 %indvars.iv.i.i.i
  %4 = load ptr, ptr %arrayidx.i.i.i.i, align 8
  %isnull.i.i.i = icmp eq ptr %4, null
  br i1 %isnull.i.i.i, label %for.inc.i.i.i, label %delete.notnull.i.i.i

delete.notnull.i.i.i:                             ; preds = %for.body.i.i.i
  tail call void @_ZN6icu_757UMemorydlEPv(ptr noundef nonnull %4) #17
  %.pre.i.i.i = load i32, ptr %singleUnits.i, align 8
  br label %for.inc.i.i.i

for.inc.i.i.i:                                    ; preds = %delete.notnull.i.i.i, %for.body.i.i.i
  %5 = phi i32 [ %2, %for.body.i.i.i ], [ %.pre.i.i.i, %delete.notnull.i.i.i ]
  %indvars.iv.next.i.i.i = add nuw nsw i64 %indvars.iv.i.i.i, 1
  %6 = sext i32 %5 to i64
  %cmp.i.i.i = icmp slt i64 %indvars.iv.next.i.i.i, %6
  br i1 %cmp.i.i.i, label %for.body.i.i.i, label %for.end.i.i.i, !llvm.loop !4

for.end.i.i.i:                                    ; preds = %for.inc.i.i.i, %delete.notnull
  %needToRelease.i.i.i.i.i = getelementptr inbounds i8, ptr %0, i64 28
  %7 = load i8, ptr %needToRelease.i.i.i.i.i, align 4
  %tobool.not.i.i.i.i.i = icmp eq i8 %7, 0
  br i1 %tobool.not.i.i.i.i.i, label %_ZN6icu_7515MeasureUnitImplD2Ev.exit, label %if.then.i.i.i.i.i

if.then.i.i.i.i.i:                                ; preds = %for.end.i.i.i
  %fPool2.i.i.i = getelementptr inbounds i8, ptr %0, i64 16
  %8 = load ptr, ptr %fPool2.i.i.i, align 8
  invoke void @uprv_free_75(ptr noundef %8)
          to label %_ZN6icu_7515MeasureUnitImplD2Ev.exit unwind label %terminate.lpad.i.i.i.i

terminate.lpad.i.i.i.i:                           ; preds = %if.then.i.i.i.i.i
  %9 = landingpad { ptr, i32 }
          catch ptr null
  %10 = extractvalue { ptr, i32 } %9, 0
  tail call void @__clang_call_terminate(ptr %10) #19
  unreachable

_ZN6icu_7515MeasureUnitImplD2Ev.exit:             ; preds = %for.end.i.i.i, %if.then.i.i.i.i.i
  tail call void @_ZN6icu_757UMemorydlEPv(ptr noundef nonnull %0) #17
  br label %if.end5

if.end5:                                          ; preds = %_ZN6icu_7515MeasureUnitImplD2Ev.exit, %if.end
  %fImpl6 = getelementptr inbounds i8, ptr %other, i64 8
  %11 = load ptr, ptr %fImpl6, align 8
  store ptr %11, ptr %fImpl, align 8
  store ptr null, ptr %fImpl6, align 8
  %fTypeId = getelementptr inbounds i8, ptr %other, i64 18
  %12 = load i8, ptr %fTypeId, align 2
  %fTypeId9 = getelementptr inbounds i8, ptr %this, i64 18
  store i8 %12, ptr %fTypeId9, align 2
  %fSubTypeId = getelementptr inbounds i8, ptr %other, i64 16
  %13 = load i16, ptr %fSubTypeId, align 8
  %fSubTypeId10 = getelementptr inbounds i8, ptr %this, i64 16
  store i16 %13, ptr %fSubTypeId10, align 8
  br label %return

return:                                           ; preds = %entry, %if.end5
  ret ptr %this
}